; Function Attrs: nounwind uwtable
define internal range(i32 -1, 1) i32 @H5D__farray_idx_close(ptr nocapture noundef readonly %0) #1 {
  %2 = getelementptr inbounds i8, ptr %0, i64 24
  %3 = load ptr, ptr %2, align 8
  %4 = getelementptr inbounds i8, ptr %3, i64 32
  %5 = load ptr, ptr %4, align 8
  %6 = tail call i32 @H5FA_close(ptr noundef %5) #11
  %7 = icmp slt i32 %6, 0
  br i1 %7, label %8, label %12

8:                                                ; preds = %1
  %9 = load i64, ptr @H5E_DATASET_g, align 8
  %10 = load i64, ptr @H5E_CANTCLOSEOBJ_g, align 8
  %11 = tail call i32 (ptr, ptr, i32, i64, i64, ptr, ...) @H5E_printf_stack(ptr noundef nonnull @.str.2, ptr noundef nonnull @__func__.H5D__farray_idx_close, i32 noundef 888, i64 noundef %9, i64 noundef %10, ptr noundef nonnull @.str.21) #11
  br label %15

12:                                               ; preds = %1
  %13 = load ptr, ptr %2, align 8
  %14 = getelementptr inbounds i8, ptr %13, i64 32
  store ptr null, ptr %14, align 8
  br label %15

15:                                               ; preds = %12, %8
  %.0 = phi i32 [ -1, %8 ], [ 0, %12 ]
  ret i32 %.0
}